target datalayout = "e-m:e-p270:32:32-p271:32:32-p272:64:64-i64:64-i128:128-f80:128-n8:16:32:64-S128"
target triple = "x86_64-pc-linux-gnu"

; Function Attrs: nounwind uwtable
define internal void @sift_down(ptr noundef %0, i32 noundef %1) #0 {
  %3 = alloca ptr, align 8
  %4 = alloca i32, align 4
  %5 = alloca i32, align 4
  %6 = alloca i32, align 4
  store ptr %0, ptr %3, align 8
  store i32 %1, ptr %4, align 4
  store i32 1, ptr %5, align 4
  store i32 2, ptr %6, align 4
  br label %7

7:                                                ; preds = %51, %2
  %8 = load i32, ptr %6, align 4
  %9 = load i32, ptr %4, align 4
  %10 = icmp sle i32 %8, %9
  br i1 %10, label %11, label %52

11:                                               ; preds = %7
  %12 = load i32, ptr %6, align 4
  %13 = load i32, ptr %4, align 4
  %14 = icmp slt i32 %12, %13
  br i1 %14, label %15, label %31

15:                                               ; preds = %11
  %16 = load ptr, ptr %3, align 8
  %17 = load i32, ptr %6, align 4
  %18 = sext i32 %17 to i64
  %19 = getelementptr inbounds i32, ptr %16, i64 %18
  %20 = load i32, ptr %19, align 4
  %21 = load ptr, ptr %3, align 8
  %22 = load i32, ptr %6, align 4
  %23 = add nsw i32 %22, 1
  %24 = sext i32 %23 to i64
  %25 = getelementptr inbounds i32, ptr %21, i64 %24
  %26 = load i32, ptr %25, align 4
  %27 = icmp slt i32 %20, %26
  br i1 %27, label %28, label %31

28:                                               ; preds = %15
  %29 = load i32, ptr %6, align 4
  %30 = add nsw i32 %29, 1
  store i32 %30, ptr %6, align 4
  br label %31

31:                                               ; preds = %28, %15, %11
  %32 = load ptr, ptr %3, align 8
  %33 = load i32, ptr %5, align 4
  %34 = sext i32 %33 to i64
  %35 = getelementptr inbounds i32, ptr %32, i64 %34
  %36 = load i32, ptr %35, align 4
  %37 = load ptr, ptr %3, align 8
  %38 = load i32, ptr %6, align 4
  %39 = sext i32 %38 to i64
  %40 = getelementptr inbounds i32, ptr %37, i64 %39
  %41 = load i32, ptr %40, align 4
  %42 = icmp slt i32 %36, %41
  br i1 %42, label %43, label %50

43:                                               ; preds = %31
  %44 = load ptr, ptr %3, align 8
  %45 = load i32, ptr %5, align 4
  %46 = load i32, ptr %6, align 4
  call void @swap(ptr noundef %44, i32 noundef %45, i32 noundef %46)
  %47 = load i32, ptr %6, align 4
  store i32 %47, ptr %5, align 4
  %48 = load i32, ptr %5, align 4
  %49 = mul nsw i32 2, %48
  store i32 %49, ptr %6, align 4
  br label %51

50:                                               ; preds = %31
  br label %52

51:                                               ; preds = %43
  br label %7, !llvm.loop !87

52:                                               ; preds = %50, %7
  ret void
}

; Function Attrs: nounwind uwtable
define internal void @swap(ptr noundef %0, i32 noundef %1, i32 noundef %2) #0 {
  %4 = alloca ptr, align 8
  %5 = alloca i32, align 4
  %6 = alloca i32, align 4
  %7 = alloca i32, align 4
  store ptr %0, ptr %4, align 8
  store i32 %1, ptr %5, align 4
  store i32 %2, ptr %6, align 4
  %8 = load ptr, ptr %4, align 8
  %9 = load i32, ptr %5, align 4
  %10 = sext i32 %9 to i64
  %11 = getelementptr inbounds i32, ptr %8, i64 %10
  %12 = load i32, ptr %11, align 4
  store i32 %12, ptr %7, align 4
  %13 = load ptr, ptr %4, align 8
  %14 = load i32, ptr %6, align 4
  %15 = sext i32 %14 to i64
  %16 = getelementptr inbounds i32, ptr %13, i64 %15
  %17 = load i32, ptr %16, align 4
  %18 = load ptr, ptr %4, align 8
  %19 = load i32, ptr %5, align 4
  %20 = sext i32 %19 to i64
  %21 = getelementptr inbounds i32, ptr %18, i64 %20
  store i32 %17, ptr %21, align 4
  %22 = load i32, ptr %7, align 4
  %23 = load ptr, ptr %4, align 8
  %24 = load i32, ptr %6, align 4
  %25 = sext i32 %24 to i64
  %26 = getelementptr inbounds i32, ptr %23, i64 %25
  store i32 %22, ptr %26, align 4
  ret void
}

; Function Attrs: nounwind uwtable
define internal void @sift_up(ptr noundef %0, i32 noundef %1) #0 {
  %3 = alloca ptr, align 8
  %4 = alloca i32, align 4
  %5 = alloca i32, align 4
  store ptr %0, ptr %3, align 8
  store i32 %1, ptr %4, align 4
  br label %6

6:                                                ; preds = %27, %2
  %7 = load i32, ptr %4, align 4
  %8 = sdiv i32 %7, 2
  store i32 %8, ptr %5, align 4
  %9 = load ptr, ptr %3, align 8
  %10 = load i32, ptr %4, align 4
  %11 = sext i32 %10 to i64
  %12 = getelementptr inbounds i32, ptr %9, i64 %11
  %13 = load i32, ptr %12, align 4
  %14 = load ptr, ptr %3, align 8
  %15 = load i32, ptr %5, align 4
  %16 = sext i32 %15 to i64
  %17 = getelementptr inbounds i32, ptr %14, i64 %16
  %18 = load i32, ptr %17, align 4
  %19 = icmp sle i32 %13, %18
  br i1 %19, label %20, label %21

20:                                               ; preds = %6
  br label %30

21:                                               ; preds = %6
  %22 = load ptr, ptr %3, align 8
  %23 = load i32, ptr %4, align 4
  %24 = load i32, ptr %5, align 4
  call void @swap(ptr noundef %22, i32 noundef %23, i32 noundef %24)
  %25 = load i32, ptr %5, align 4
  store i32 %25, ptr %4, align 4
  br label %26

26:                                               ; preds = %21
  br label %27

27:                                               ; preds = %26
  %28 = load i32, ptr %4, align 4
  %29 = icmp sgt i32 %28, 1
  br i1 %29, label %6, label %30, !llvm.loop !86

30:                                               ; preds = %27, %20
  ret void
}

; Function Attrs: nounwind uwtable
define internal i32 @partition(ptr noundef %0, i32 noundef %1, i32 noundef %2) #0 {
  %4 = alloca ptr, align 8
  %5 = alloca i32, align 4
  %6 = alloca i32, align 4
  %7 = alloca i32, align 4
  %8 = alloca i32, align 4
  store ptr %0, ptr %4, align 8
  store i32 %1, ptr %5, align 4
  store i32 %2, ptr %6, align 4
  store i32 0, ptr %7, align 4
  %9 = load i32, ptr %5, align 4
  store i32 %9, ptr %8, align 4
  br label %10

10:                                               ; preds = %45, %3
  br label %11

11:                                               ; preds = %19, %10
  %12 = load ptr, ptr %4, align 8
  %13 = load i32, ptr %7, align 4
  %14 = sext i32 %13 to i64
  %15 = getelementptr inbounds i32, ptr %12, i64 %14
  %16 = load i32, ptr %15, align 4
  %17 = load i32, ptr %6, align 4
  %18 = icmp sle i32 %16, %17
  br i1 %18, label %19, label %22

19:                                               ; preds = %11
  %20 = load i32, ptr %7, align 4
  %21 = add nsw i32 %20, 1
  store i32 %21, ptr %7, align 4
  br label %11, !llvm.loop !84

22:                                               ; preds = %11
  br label %23

23:                                               ; preds = %26, %22
  %24 = load i32, ptr %8, align 4
  %25 = add nsw i32 %24, -1
  store i32 %25, ptr %8, align 4
  br label %26

26:                                               ; preds = %23
  %27 = load i32, ptr %6, align 4
  %28 = load ptr, ptr %4, align 8
  %29 = load i32, ptr %8, align 4
  %30 = sext i32 %29 to i64
  %31 = getelementptr inbounds i32, ptr %28, i64 %30
  %32 = load i32, ptr %31, align 4
  %33 = icmp sle i32 %27, %32
  br i1 %33, label %23, label %34, !llvm.loop !85

34:                                               ; preds = %26
  %35 = load i32, ptr %7, align 4
  %36 = load i32, ptr %8, align 4
  %37 = icmp slt i32 %35, %36
  br i1 %37, label %38, label %44

38:                                               ; preds = %34
  %39 = load ptr, ptr %4, align 8
  %40 = load i32, ptr %7, align 4
  %41 = load i32, ptr %8, align 4
  call void @swap(ptr noundef %39, i32 noundef %40, i32 noundef %41)
  %42 = load i32, ptr %7, align 4
  %43 = add nsw i32 %42, 1
  store i32 %43, ptr %7, align 4
  br label %45

44:                                               ; preds = %34
  br label %46

45:                                               ; preds = %38
  br label %10

46:                                               ; preds = %44
  %47 = load i32, ptr %7, align 4
  ret i32 %47
}

; Function Attrs: nounwind uwtable
define internal i32 @median(i32 noundef %0, i32 noundef %1, i32 noundef %2) #0 {
  %4 = alloca i32, align 4
  %5 = alloca i32, align 4
  %6 = alloca i32, align 4
  %7 = alloca i32, align 4
  store i32 %0, ptr %5, align 4
  store i32 %1, ptr %6, align 4
  store i32 %2, ptr %7, align 4
  %8 = load i32, ptr %5, align 4
  %9 = load i32, ptr %6, align 4
  %10 = icmp sle i32 %8, %9
  br i1 %10, label %11, label %25

11:                                               ; preds = %3
  %12 = load i32, ptr %6, align 4
  %13 = load i32, ptr %7, align 4
  %14 = icmp sle i32 %12, %13
  br i1 %14, label %15, label %17

15:                                               ; preds = %11
  %16 = load i32, ptr %6, align 4
  store i32 %16, ptr %4, align 4
  br label %39

17:                                               ; preds = %11
  %18 = load i32, ptr %5, align 4
  %19 = load i32, ptr %7, align 4
  %20 = icmp sle i32 %18, %19
  br i1 %20, label %21, label %23

21:                                               ; preds = %17
  %22 = load i32, ptr %7, align 4
  store i32 %22, ptr %4, align 4
  br label %39

23:                                               ; preds = %17
  %24 = load i32, ptr %5, align 4
  store i32 %24, ptr %4, align 4
  br label %39

25:                                               ; preds = %3
  %26 = load i32, ptr %5, align 4
  %27 = load i32, ptr %7, align 4
  %28 = icmp sle i32 %26, %27
  br i1 %28, label %29, label %31

29:                                               ; preds = %25
  %30 = load i32, ptr %5, align 4
  store i32 %30, ptr %4, align 4
  br label %39

31:                                               ; preds = %25
  %32 = load i32, ptr %6, align 4
  %33 = load i32, ptr %7, align 4
  %34 = icmp sle i32 %32, %33
  br i1 %34, label %35, label %37

35:                                               ; preds = %31
  %36 = load i32, ptr %7, align 4
  store i32 %36, ptr %4, align 4
  br label %39

37:                                               ; preds = %31
  %38 = load i32, ptr %6, align 4
  store i32 %38, ptr %4, align 4
  br label %39

39:                                               ; preds = %37, %35, %29, %23, %21, %15
  %40 = load i32, ptr %4, align 4
  ret i32 %40
}

; Function Attrs: nounwind uwtable
define internal void @heap_sort(ptr noundef %0, i32 noundef %1) #0 {
  %3 = alloca ptr, align 8
  %4 = alloca i32, align 4
  %5 = alloca i32, align 4
  store ptr %0, ptr %3, align 8
  store i32 %1, ptr %4, align 4
  store i32 1, ptr %5, align 4
  br label %6

6:                                                ; preds = %15, %2
  %7 = load i32, ptr %5, align 4
  %8 = load i32, ptr %4, align 4
  %9 = icmp slt i32 %7, %8
  br i1 %9, label %10, label %18

10:                                               ; preds = %6
  %11 = load ptr, ptr %3, align 8
  %12 = getelementptr inbounds i32, ptr %11, i64 -1
  %13 = load i32, ptr %5, align 4
  %14 = add nsw i32 %13, 1
  call void @sift_up(ptr noundef %12, i32 noundef %14)
  br label %15

15:                                               ; preds = %10
  %16 = load i32, ptr %5, align 4
  %17 = add nsw i32 %16, 1
  store i32 %17, ptr %5, align 4
  br label %6, !llvm.loop !82

18:                                               ; preds = %6
  %19 = load i32, ptr %5, align 4
  %20 = add nsw i32 %19, -1
  store i32 %20, ptr %5, align 4
  br label %21

21:                                               ; preds = %24, %18
  %22 = load i32, ptr %5, align 4
  %23 = icmp sgt i32 %22, 0
  br i1 %23, label %24, label %31

24:                                               ; preds = %21
  %25 = load ptr, ptr %3, align 8
  %26 = load i32, ptr %5, align 4
  call void @swap(ptr noundef %25, i32 noundef 0, i32 noundef %26)
  %27 = load ptr, ptr %3, align 8
  %28 = getelementptr inbounds i32, ptr %27, i64 -1
  %29 = load i32, ptr %5, align 4
  %30 = add nsw i32 %29, -1
  store i32 %30, ptr %5, align 4
  call void @sift_down(ptr noundef %28, i32 noundef %29)
  br label %21, !llvm.loop !83

31:                                               ; preds = %21
  ret void
}

; Function Attrs: nounwind uwtable
define internal void @introsort_loop(ptr noundef %0, i32 noundef %1, i32 noundef %2) #0 {
  %4 = alloca ptr, align 8
  %5 = alloca i32, align 4
  %6 = alloca i32, align 4
  %7 = alloca i32, align 4
  store ptr %0, ptr %4, align 8
  store i32 %1, ptr %5, align 4
  store i32 %2, ptr %6, align 4
  br label %8

8:                                                ; preds = %17, %3
  %9 = load i32, ptr %5, align 4
  %10 = icmp sgt i32 %9, 16
  br i1 %10, label %11, label %48

11:                                               ; preds = %8
  %12 = load i32, ptr %6, align 4
  %13 = icmp eq i32 %12, 0
  br i1 %13, label %14, label %17

14:                                               ; preds = %11
  %15 = load ptr, ptr %4, align 8
  %16 = load i32, ptr %5, align 4
  call void @heap_sort(ptr noundef %15, i32 noundef %16)
  br label %48

17:                                               ; preds = %11
  %18 = load i32, ptr %6, align 4
  %19 = add nsw i32 %18, -1
  store i32 %19, ptr %6, align 4
  %20 = load ptr, ptr %4, align 8
  %21 = load i32, ptr %5, align 4
  %22 = load ptr, ptr %4, align 8
  %23 = getelementptr inbounds i32, ptr %22, i64 0
  %24 = load i32, ptr %23, align 4
  %25 = load ptr, ptr %4, align 8
  %26 = load i32, ptr %5, align 4
  %27 = sdiv i32 %26, 2
  %28 = sext i32 %27 to i64
  %29 = getelementptr inbounds i32, ptr %25, i64 %28
  %30 = load i32, ptr %29, align 4
  %31 = load ptr, ptr %4, align 8
  %32 = load i32, ptr %5, align 4
  %33 = sub nsw i32 %32, 1
  %34 = sext i32 %33 to i64
  %35 = getelementptr inbounds i32, ptr %31, i64 %34
  %36 = load i32, ptr %35, align 4
  %37 = call i32 @median(i32 noundef %24, i32 noundef %30, i32 noundef %36)
  %38 = call i32 @partition(ptr noundef %20, i32 noundef %21, i32 noundef %37)
  store i32 %38, ptr %7, align 4
  %39 = load ptr, ptr %4, align 8
  %40 = load i32, ptr %7, align 4
  %41 = sext i32 %40 to i64
  %42 = getelementptr inbounds i32, ptr %39, i64 %41
  %43 = load i32, ptr %5, align 4
  %44 = load i32, ptr %7, align 4
  %45 = sub nsw i32 %43, %44
  %46 = load i32, ptr %6, align 4
  call void @introsort_loop(ptr noundef %42, i32 noundef %45, i32 noundef %46)
  %47 = load i32, ptr %7, align 4
  store i32 %47, ptr %5, align 4
  br label %8, !llvm.loop !78

48:                                               ; preds = %14, %8
  ret void
}