; Function Attrs: nofree nosync nounwind memory(argmem: readwrite) uwtable
define internal fastcc void @introsort_loop(ptr noundef captures(none) %0, i32 noundef %1, i32 noundef %2) unnamed_addr #10 {
  %invariant.gep = getelementptr i8, ptr %0, i64 -4
  %4 = icmp sgt i32 %1, 16
  br i1 %4, label %.lr.ph, label %heap_sort.exit

.lr.ph:                                           ; preds = %3, %partition.exit
  %.031 = phi i32 [ %70, %partition.exit ], [ %1, %3 ]
  %.01730 = phi i32 [ %43, %partition.exit ], [ %2, %3 ]
  %5 = icmp eq i32 %.01730, 0
  br i1 %5, label %6, label %42

6:                                                ; preds = %.lr.ph
  %wide.trip.count.i = zext i32 %.031 to i64
  br label %7

7:                                                ; preds = %sift_up.exit.i, %6
  %indvars.iv.i = phi i64 [ 1, %6 ], [ %indvars.iv.next.i, %sift_up.exit.i ]
  %indvars.iv.next.i = add nuw nsw i64 %indvars.iv.i, 1
  %.phi.trans.insert10.i.i = getelementptr i32, ptr %0, i64 %indvars.iv.i
  %.pre.i.i = load i32, ptr %.phi.trans.insert10.i.i, align 4
  %8 = trunc nuw nsw i64 %indvars.iv.next.i to i32
  br label %9

9:                                                ; preds = %14, %7
  %.0.i.i = phi i32 [ %8, %7 ], [ %10, %14 ]
  %10 = sdiv i32 %.0.i.i, 2
  %11 = sext i32 %10 to i64
  %12 = getelementptr inbounds i32, ptr %invariant.gep, i64 %11
  %13 = load i32, ptr %12, align 4
  %.not.i.i = icmp sgt i32 %.pre.i.i, %13
  br i1 %.not.i.i, label %14, label %sift_up.exit.i

14:                                               ; preds = %9
  %15 = sext i32 %.0.i.i to i64
  %16 = getelementptr inbounds i32, ptr %invariant.gep, i64 %15
  store i32 %13, ptr %16, align 4
  store i32 %.pre.i.i, ptr %12, align 4
  %17 = icmp sgt i32 %.0.i.i, 3
  br i1 %17, label %9, label %sift_up.exit.i, !llvm.loop !108

sift_up.exit.i:                                   ; preds = %14, %9
  %exitcond.not.i = icmp eq i64 %indvars.iv.next.i, %wide.trip.count.i
  br i1 %exitcond.not.i, label %.preheader.i, label %7, !llvm.loop !109

.preheader.i:                                     ; preds = %sift_up.exit.i, %sift_down.exit.i
  %indvars.iv16.i = phi i64 [ %indvars.iv.next17.i, %sift_down.exit.i ], [ %wide.trip.count.i, %sift_up.exit.i ]
  %indvars.iv.next17.i = add nsw i64 %indvars.iv16.i, -1
  %18 = load i32, ptr %0, align 4
  %19 = getelementptr inbounds nuw i32, ptr %0, i64 %indvars.iv.next17.i
  %20 = load i32, ptr %19, align 4
  store i32 %20, ptr %0, align 4
  store i32 %18, ptr %19, align 4
  %.not19.i.i = icmp eq i64 %indvars.iv16.i, 2
  br i1 %.not19.i.i, label %heap_sort.exit, label %.lr.ph.i.i

.lr.ph.i.i:                                       ; preds = %.preheader.i, %38
  %.021.i.i = phi i32 [ %39, %38 ], [ 2, %.preheader.i ]
  %.01720.i.i = phi i32 [ %.1.i.i, %38 ], [ 1, %.preheader.i ]
  %21 = sext i32 %.021.i.i to i64
  %22 = icmp sgt i64 %indvars.iv.next17.i, %21
  br i1 %22, label %23, label %31

23:                                               ; preds = %.lr.ph.i.i
  %24 = getelementptr inbounds i32, ptr %invariant.gep, i64 %21
  %25 = load i32, ptr %24, align 4
  %26 = or disjoint i32 %.021.i.i, 1
  %27 = sext i32 %26 to i64
  %28 = getelementptr inbounds i32, ptr %invariant.gep, i64 %27
  %29 = load i32, ptr %28, align 4
  %30 = icmp slt i32 %25, %29
  %spec.select.i.i = select i1 %30, i32 %26, i32 %.021.i.i
  %.pre.i = sext i32 %spec.select.i.i to i64
  br label %31

31:                                               ; preds = %23, %.lr.ph.i.i
  %.pre-phi.i = phi i64 [ %.pre.i, %23 ], [ %21, %.lr.ph.i.i ]
  %.1.i.i = phi i32 [ %spec.select.i.i, %23 ], [ %.021.i.i, %.lr.ph.i.i ]
  %32 = sext i32 %.01720.i.i to i64
  %33 = getelementptr inbounds i32, ptr %invariant.gep, i64 %32
  %34 = load i32, ptr %33, align 4
  %35 = getelementptr inbounds i32, ptr %invariant.gep, i64 %.pre-phi.i
  %36 = load i32, ptr %35, align 4
  %37 = icmp slt i32 %34, %36
  br i1 %37, label %38, label %sift_down.exit.i

38:                                               ; preds = %31
  store i32 %36, ptr %33, align 4
  store i32 %34, ptr %35, align 4
  %39 = shl nsw i32 %.1.i.i, 1
  %40 = sext i32 %39 to i64
  %.not.i10.not.i = icmp sgt i64 %indvars.iv16.i, %40
  br i1 %.not.i10.not.i, label %.lr.ph.i.i, label %sift_down.exit.i, !llvm.loop !110

sift_down.exit.i:                                 ; preds = %38, %31
  %41 = icmp sgt i64 %indvars.iv16.i, 2
  br i1 %41, label %.preheader.i, label %heap_sort.exit, !llvm.loop !111

42:                                               ; preds = %.lr.ph
  %43 = add nsw i32 %.01730, -1
  %44 = load i32, ptr %0, align 4
  %45 = lshr i32 %.031, 1
  %46 = zext nneg i32 %45 to i64
  %47 = getelementptr inbounds nuw i32, ptr %0, i64 %46
  %48 = load i32, ptr %47, align 4
  %49 = zext nneg i32 %.031 to i64
  %gep = getelementptr i32, ptr %invariant.gep, i64 %49
  %50 = load i32, ptr %gep, align 4
  %.not.i = icmp sgt i32 %44, %48
  br i1 %.not.i, label %53, label %51

51:                                               ; preds = %42
  %.not24.i = icmp sgt i32 %48, %50
  br i1 %.not24.i, label %52, label %median.exit

52:                                               ; preds = %51
  %..i = tail call i32 @llvm.smax.i32(i32 %44, i32 %50)
  br label %median.exit

53:                                               ; preds = %42
  %.not22.i = icmp sgt i32 %44, %50
  br i1 %.not22.i, label %54, label %median.exit

54:                                               ; preds = %53
  %.26.i = tail call i32 @llvm.smax.i32(i32 %48, i32 %50)
  br label %median.exit

median.exit:                                      ; preds = %51, %52, %53, %54
  %.0.i = phi i32 [ %48, %51 ], [ %..i, %52 ], [ %44, %53 ], [ %.26.i, %54 ]
  br label %55

55:                                               ; preds = %67, %median.exit
  %.015.i = phi i64 [ 0, %median.exit ], [ %indvars.iv.next.i21, %67 ]
  %.0.i18 = phi i32 [ %.031, %median.exit ], [ %69, %67 ]
  %sext.i = shl i64 %.015.i, 32
  %56 = ashr exact i64 %sext.i, 32
  br label %57

57:                                               ; preds = %57, %55
  %indvars.iv.i19 = phi i64 [ %indvars.iv.next.i21, %57 ], [ %56, %55 ]
  %58 = getelementptr inbounds i32, ptr %0, i64 %indvars.iv.i19
  %59 = load i32, ptr %58, align 4
  %.not.i20 = icmp sgt i32 %59, %.0.i
  %indvars.iv.next.i21 = add nsw i64 %indvars.iv.i19, 1
  br i1 %.not.i20, label %.preheader.i22, label %57, !llvm.loop !112

.preheader.i22:                                   ; preds = %57
  %60 = getelementptr inbounds i32, ptr %0, i64 %indvars.iv.i19
  %61 = sext i32 %.0.i18 to i64
  br label %62

62:                                               ; preds = %62, %.preheader.i22
  %indvars.iv30.i = phi i64 [ %61, %.preheader.i22 ], [ %indvars.iv.next31.i, %62 ]
  %indvars.iv.next31.i = add nsw i64 %indvars.iv30.i, -1
  %63 = getelementptr inbounds i32, ptr %0, i64 %indvars.iv.next31.i
  %64 = load i32, ptr %63, align 4
  %.not18.i = icmp sgt i32 %.0.i, %64
  br i1 %.not18.i, label %65, label %62, !llvm.loop !113

65:                                               ; preds = %62
  %66 = icmp slt i64 %indvars.iv.i19, %indvars.iv.next31.i
  br i1 %66, label %67, label %partition.exit

67:                                               ; preds = %65
  %68 = getelementptr inbounds i32, ptr %0, i64 %indvars.iv.next31.i
  %69 = trunc nsw i64 %indvars.iv.next31.i to i32
  store i32 %64, ptr %60, align 4
  store i32 %59, ptr %68, align 4
  br label %55

partition.exit:                                   ; preds = %65
  %70 = trunc nsw i64 %indvars.iv.i19 to i32
  %sext = shl i64 %indvars.iv.i19, 32
  %71 = ashr exact i64 %sext, 30
  %72 = getelementptr inbounds i8, ptr %0, i64 %71
  %73 = sub nsw i32 %.031, %70
  tail call fastcc void @introsort_loop(ptr noundef nonnull %72, i32 noundef %73, i32 noundef %43)
  %74 = icmp sgt i64 %indvars.iv.i19, 16
  br i1 %74, label %.lr.ph, label %heap_sort.exit, !llvm.loop !114

heap_sort.exit:                                   ; preds = %partition.exit, %sift_down.exit.i, %.preheader.i, %3
  ret void
}